target datalayout = "e-m:e-p270:32:32-p271:32:32-p272:64:64-i64:64-i128:128-f80:128-n8:16:32:64-S128"
target triple = "x86_64-pc-linux-gnu"

%struct.pbl_node_t = type { i32, ptr, ptr, ptr, ptr, ptr, ptr, i32 }
%struct.pbl_field_descriptor_t = type { %struct.pbl_node_t, i32, i32, ptr, ptr, i8, i8, i8, ptr, i32, %union.anon }
%union.anon = type { i64 }
%struct.pbl_option_descriptor_t = type { %struct.pbl_node_t, ptr }
%struct.pbl_file_descriptor_t = type { ptr, i32, ptr, i32, ptr }

@.str.4 = private unnamed_addr constant [7 x i8] c"packed\00", align 1
@.str.5 = private unnamed_addr constant [5 x i8] c"true\00", align 1

; Function Attrs: null_pointer_is_valid sspstrong uwtable
define hidden i32 @pbl_field_descriptor_type(ptr noundef %0) #0 {
  %2 = alloca ptr, align 8
  %3 = alloca ptr, align 8
  store ptr %0, ptr %2, align 8
  call void @llvm.lifetime.start.p0(i64 8, ptr %3) #13
  %4 = load ptr, ptr %2, align 8
  %5 = getelementptr inbounds nuw %struct.pbl_field_descriptor_t, ptr %4, i32 0, i32 2
  %6 = load i32, ptr %5, align 4
  %7 = icmp eq i32 %6, 0
  br i1 %7, label %8, label %36

8:                                                ; preds = %1
  %9 = load ptr, ptr %2, align 8
  %10 = getelementptr inbounds nuw %struct.pbl_node_t, ptr %9, i32 0, i32 3
  %11 = load ptr, ptr %10, align 8
  %12 = load ptr, ptr %2, align 8
  %13 = getelementptr inbounds nuw %struct.pbl_field_descriptor_t, ptr %12, i32 0, i32 3
  %14 = load ptr, ptr %13, align 8
  %15 = call ptr @pbl_find_node_in_context(ptr noundef %11, ptr noundef %14, i32 noundef 6)
  store ptr %15, ptr %3, align 8
  %16 = load ptr, ptr %3, align 8
  %17 = icmp ne ptr %16, null
  br i1 %17, label %18, label %21

18:                                               ; preds = %8
  %19 = load ptr, ptr %2, align 8
  %20 = getelementptr inbounds nuw %struct.pbl_field_descriptor_t, ptr %19, i32 0, i32 2
  store i32 14, ptr %20, align 4
  br label %35

21:                                               ; preds = %8
  %22 = load ptr, ptr %2, align 8
  %23 = getelementptr inbounds nuw %struct.pbl_node_t, ptr %22, i32 0, i32 3
  %24 = load ptr, ptr %23, align 8
  %25 = load ptr, ptr %2, align 8
  %26 = getelementptr inbounds nuw %struct.pbl_field_descriptor_t, ptr %25, i32 0, i32 3
  %27 = load ptr, ptr %26, align 8
  %28 = call ptr @pbl_find_node_in_context(ptr noundef %24, ptr noundef %27, i32 noundef 2)
  store ptr %28, ptr %3, align 8
  %29 = load ptr, ptr %3, align 8
  %30 = icmp ne ptr %29, null
  br i1 %30, label %31, label %34

31:                                               ; preds = %21
  %32 = load ptr, ptr %2, align 8
  %33 = getelementptr inbounds nuw %struct.pbl_field_descriptor_t, ptr %32, i32 0, i32 2
  store i32 11, ptr %33, align 4
  br label %34

34:                                               ; preds = %31, %21
  br label %35

35:                                               ; preds = %34, %18
  br label %36

36:                                               ; preds = %35, %1
  %37 = load ptr, ptr %2, align 8
  %38 = getelementptr inbounds nuw %struct.pbl_field_descriptor_t, ptr %37, i32 0, i32 2
  %39 = load i32, ptr %38, align 4
  call void @llvm.lifetime.end.p0(i64 8, ptr %3) #13
  ret i32 %39
}

; Function Attrs: null_pointer_is_valid sspstrong uwtable
define hidden i32 @pbl_field_descriptor_is_packed(ptr noundef %0) #0 {
  %2 = alloca i32, align 4
  %3 = alloca ptr, align 8
  %4 = alloca i8, align 1
  %5 = alloca i8, align 1
  %6 = alloca i32, align 4
  %7 = alloca i32, align 4
  store ptr %0, ptr %3, align 8
  call void @llvm.lifetime.start.p0(i64 1, ptr %4) #13
  call void @llvm.lifetime.start.p0(i64 1, ptr %5) #13
  call void @llvm.lifetime.start.p0(i64 4, ptr %6) #13
  %8 = load ptr, ptr %3, align 8
  %9 = getelementptr inbounds nuw %struct.pbl_node_t, ptr %8, i32 0, i32 6
  %10 = load ptr, ptr %9, align 8
  %11 = getelementptr inbounds nuw %struct.pbl_file_descriptor_t, ptr %10, i32 0, i32 1
  %12 = load i32, ptr %11, align 8
  store i32 %12, ptr %6, align 4
  %13 = load ptr, ptr %3, align 8
  %14 = getelementptr inbounds nuw %struct.pbl_field_descriptor_t, ptr %13, i32 0, i32 5
  %15 = load i8, ptr %14, align 8, !range !15, !noundef !16
  %16 = trunc i8 %15 to i1
  %17 = zext i1 %16 to i32
  %18 = icmp eq i32 %17, 0
  br i1 %18, label %19, label %20

19:                                               ; preds = %1
  store i32 0, ptr %2, align 4
  store i32 1, ptr %7, align 4
  br label %82

20:                                               ; preds = %1
  %21 = load ptr, ptr %3, align 8
  %22 = call i32 @pbl_field_descriptor_type(ptr noundef %21)
  switch i32 %22, label %24 [
    i32 9, label %23
    i32 10, label %23
    i32 11, label %23
    i32 12, label %23
  ]

23:                                               ; preds = %20, %20, %20, %20
  store i32 0, ptr %2, align 4
  store i32 1, ptr %7, align 4
  br label %82

24:                                               ; preds = %20
  %25 = load ptr, ptr %3, align 8
  %26 = getelementptr inbounds nuw %struct.pbl_field_descriptor_t, ptr %25, i32 0, i32 4
  %27 = load ptr, ptr %26, align 8
  %28 = icmp ne ptr %27, null
  br i1 %28, label %29, label %44

29:                                               ; preds = %24
  %30 = load ptr, ptr %3, align 8
  %31 = getelementptr inbounds nuw %struct.pbl_field_descriptor_t, ptr %30, i32 0, i32 4
  %32 = load ptr, ptr %31, align 8
  %33 = getelementptr inbounds nuw %struct.pbl_node_t, ptr %32, i32 0, i32 5
  %34 = load ptr, ptr %33, align 8
  %35 = icmp ne ptr %34, null
  br i1 %35, label %36, label %44

36:                                               ; preds = %29
  %37 = load ptr, ptr %3, align 8
  %38 = getelementptr inbounds nuw %struct.pbl_field_descriptor_t, ptr %37, i32 0, i32 4
  %39 = load ptr, ptr %38, align 8
  %40 = getelementptr inbounds nuw %struct.pbl_node_t, ptr %39, i32 0, i32 5
  %41 = load ptr, ptr %40, align 8
  %42 = call ptr @g_hash_table_lookup(ptr noundef %41, ptr noundef @.str.4)
  %43 = icmp ne ptr %42, null
  br label %44

44:                                               ; preds = %36, %29, %24
  %45 = phi i1 [ false, %29 ], [ false, %24 ], [ %43, %36 ]
  %46 = zext i1 %45 to i8
  store i8 %46, ptr %4, align 1
  %47 = load i8, ptr %4, align 1, !range !15, !noundef !16
  %48 = trunc i8 %47 to i1
  br i1 %48, label %49, label %61

49:                                               ; preds = %44
  %50 = load ptr, ptr %3, align 8
  %51 = getelementptr inbounds nuw %struct.pbl_field_descriptor_t, ptr %50, i32 0, i32 4
  %52 = load ptr, ptr %51, align 8
  %53 = getelementptr inbounds nuw %struct.pbl_node_t, ptr %52, i32 0, i32 5
  %54 = load ptr, ptr %53, align 8
  %55 = call ptr @g_hash_table_lookup(ptr noundef %54, ptr noundef @.str.4)
  %56 = getelementptr inbounds nuw %struct.pbl_option_descriptor_t, ptr %55, i32 0, i32 1
  %57 = load ptr, ptr %56, align 8
  %58 = call i32 @g_strcmp0(ptr noundef %57, ptr noundef @.str.5)
  %59 = icmp eq i32 %58, 0
  %60 = zext i1 %59 to i32
  br label %62

61:                                               ; preds = %44
  br label %62

62:                                               ; preds = %61, %49
  %63 = phi i32 [ %60, %49 ], [ 0, %61 ]
  %64 = icmp ne i32 %63, 0
  %65 = zext i1 %64 to i8
  store i8 %65, ptr %5, align 1
  %66 = load i32, ptr %6, align 4
  %67 = icmp eq i32 %66, 2
  br i1 %67, label %68, label %72

68:                                               ; preds = %62
  %69 = load i8, ptr %5, align 1, !range !15, !noundef !16
  %70 = trunc i8 %69 to i1
  %71 = zext i1 %70 to i32
  store i32 %71, ptr %2, align 4
  store i32 1, ptr %7, align 4
  br label %82

72:                                               ; preds = %62
  %73 = load i8, ptr %4, align 1, !range !15, !noundef !16
  %74 = trunc i8 %73 to i1
  br i1 %74, label %75, label %79

75:                                               ; preds = %72
  %76 = load i8, ptr %5, align 1, !range !15, !noundef !16
  %77 = trunc i8 %76 to i1
  %78 = zext i1 %77 to i32
  br label %80

79:                                               ; preds = %72
  br label %80

80:                                               ; preds = %79, %75
  %81 = phi i32 [ %78, %75 ], [ 1, %79 ]
  store i32 %81, ptr %2, align 4
  store i32 1, ptr %7, align 4
  br label %82

82:                                               ; preds = %80, %68, %23, %19
  call void @llvm.lifetime.end.p0(i64 4, ptr %6) #13
  call void @llvm.lifetime.end.p0(i64 1, ptr %5) #13
  call void @llvm.lifetime.end.p0(i64 1, ptr %4) #13
  %83 = load i32, ptr %2, align 4
  ret i32 %83
}