; Function Attrs: null_pointer_is_valid sspstrong uwtable
define hidden range(i32 0, 2) i32 @pbl_field_descriptor_is_packed(ptr noundef captures(none) %0) local_unnamed_addr #0 {
  %2 = getelementptr inbounds nuw i8, ptr %0, i64 48
  %3 = load ptr, ptr %2, align 8
  %4 = getelementptr inbounds nuw i8, ptr %3, i64 8
  %5 = load i32, ptr %4, align 8
  %6 = getelementptr inbounds nuw i8, ptr %0, i64 88
  %7 = load i8, ptr %6, align 8, !range !18, !noundef !19
  %8 = icmp eq i8 %7, 0
  br i1 %8, label %45, label %9

9:                                                ; preds = %1
  %10 = getelementptr inbounds nuw i8, ptr %0, i64 68
  %11 = load i32, ptr %10, align 4
  %12 = icmp eq i32 %11, 0
  br i1 %12, label %13, label %pbl_field_descriptor_type.exit

13:                                               ; preds = %9
  %14 = getelementptr inbounds nuw i8, ptr %0, i64 24
  %15 = load ptr, ptr %14, align 8
  %16 = getelementptr inbounds nuw i8, ptr %0, i64 72
  %17 = load ptr, ptr %16, align 8
  %18 = tail call fastcc ptr @pbl_find_node_in_context(ptr noundef %15, ptr noundef %17, i32 noundef 6)
  %.not.i = icmp eq ptr %18, null
  br i1 %.not.i, label %19, label %pbl_field_descriptor_type.exit.thread17

pbl_field_descriptor_type.exit.thread17:          ; preds = %13
  store i32 14, ptr %10, align 4
  br label %24

19:                                               ; preds = %13
  %20 = load ptr, ptr %14, align 8
  %21 = load ptr, ptr %16, align 8
  %22 = tail call fastcc ptr @pbl_find_node_in_context(ptr noundef %20, ptr noundef %21, i32 noundef 2)
  %.not10.i = icmp eq ptr %22, null
  br i1 %.not10.i, label %._crit_edge.i, label %pbl_field_descriptor_type.exit.thread

._crit_edge.i:                                    ; preds = %19
  %.pre.i = load i32, ptr %10, align 4
  br label %pbl_field_descriptor_type.exit

pbl_field_descriptor_type.exit.thread:            ; preds = %19
  store i32 11, ptr %10, align 4
  br label %45

pbl_field_descriptor_type.exit:                   ; preds = %9, %._crit_edge.i
  %23 = phi i32 [ %.pre.i, %._crit_edge.i ], [ %11, %9 ]
  %.off = add i32 %23, -9
  %switch = icmp ult i32 %.off, 4
  br i1 %switch, label %45, label %24

24:                                               ; preds = %pbl_field_descriptor_type.exit.thread17, %pbl_field_descriptor_type.exit
  %25 = getelementptr inbounds nuw i8, ptr %0, i64 80
  %26 = load ptr, ptr %25, align 8
  %.not = icmp eq ptr %26, null
  br i1 %.not, label %.critedge, label %27

27:                                               ; preds = %24
  %28 = getelementptr inbounds nuw i8, ptr %26, i64 40
  %29 = load ptr, ptr %28, align 8
  %.not14 = icmp eq ptr %29, null
  br i1 %.not14, label %.critedge, label %30

30:                                               ; preds = %27
  %31 = tail call ptr @g_hash_table_lookup(ptr noundef nonnull %29, ptr noundef nonnull @.str.4)
  %.not20 = icmp eq ptr %31, null
  br i1 %.not20, label %.critedge, label %32

32:                                               ; preds = %30
  %33 = load ptr, ptr %25, align 8
  %34 = getelementptr inbounds nuw i8, ptr %33, i64 40
  %35 = load ptr, ptr %34, align 8
  %36 = tail call ptr @g_hash_table_lookup(ptr noundef %35, ptr noundef nonnull @.str.4)
  %37 = getelementptr inbounds nuw i8, ptr %36, i64 64
  %38 = load ptr, ptr %37, align 8
  %39 = tail call i32 @g_strcmp0(ptr noundef %38, ptr noundef nonnull @.str.5)
  %40 = icmp eq i32 %39, 0
  %41 = zext i1 %40 to i32
  br label %.critedge

.critedge:                                        ; preds = %27, %24, %30, %32
  %42 = phi i32 [ %41, %32 ], [ 1, %30 ], [ 1, %24 ], [ 1, %27 ]
  %43 = phi i32 [ %41, %32 ], [ 0, %30 ], [ 0, %24 ], [ 0, %27 ]
  %44 = icmp eq i32 %5, 2
  %. = select i1 %44, i32 %43, i32 %42
  br label %45

45:                                               ; preds = %pbl_field_descriptor_type.exit.thread, %.critedge, %pbl_field_descriptor_type.exit, %1
  %.0 = phi i32 [ 0, %1 ], [ 0, %pbl_field_descriptor_type.exit ], [ %., %.critedge ], [ 0, %pbl_field_descriptor_type.exit.thread ]
  ret i32 %.0
}